; Function Attrs: nounwind sspstrong uwtable
define internal noundef nonnull ptr @riscv_gdb_arch_name(ptr noundef %cs) #3 {
entry:
  %call.i = tail call ptr @object_dynamic_cast_assert(ptr noundef %cs, ptr noundef nonnull @.str.250, ptr noundef nonnull @.str.282, i32 noundef 46, ptr noundef nonnull @__func__.RISCV_CPU) #14
  %0 = getelementptr i8, ptr %call.i, i64 15184
  %env1.val = load i32, ptr %0, align 16
  %switch.tableidx = add i32 %env1.val, -1
  %1 = icmp ult i32 %switch.tableidx, 3
  br i1 %1, label %switch.lookup, label %do.body

do.body:                                          ; preds = %entry
  tail call void @g_assertion_message_expr(ptr noundef null, ptr noundef nonnull @.str.218, i32 noundef 1517, ptr noundef nonnull @__func__.riscv_gdb_arch_name, ptr noundef null) #15
  unreachable

switch.lookup:                                    ; preds = %entry
  %2 = zext nneg i32 %switch.tableidx to i64
  %switch.gep = getelementptr inbounds nuw [3 x ptr], ptr @switch.table.riscv_gdb_arch_name, i64 0, i64 %2
  %switch.load = load ptr, ptr %switch.gep, align 8
  ret ptr %switch.load
}